target datalayout = "e-m:e-p270:32:32-p271:32:32-p272:64:64-i64:64-i128:128-f80:128-n8:16:32:64-S128"
target triple = "x86_64-pc-linux-gnu"

%struct.connectdata = type { %struct.Curl_llist_node, ptr, ptr, i64, ptr, i64, ptr, ptr, %struct.hostname, ptr, ptr, %struct.hostname, %struct.proxy_info, %struct.proxy_info, %struct.ip_quadruple, %struct.ip_quadruple, ptr, ptr, ptr, ptr, ptr, %struct.curltime, %struct.curltime, %struct.curltime, [2 x i32], [2 x ptr], [2 x ptr], [2 x ptr], %struct.anon, %struct.easy_pollset, %struct.ssl_primary_config, %struct.ssl_primary_config, %struct.ConnectBits, ptr, ptr, %struct.curltime, i32, i32, %struct.Curl_llist, i32, i32, %struct.ntlmdata, %struct.ntlmdata, %union.anon.1, ptr, ptr, i16, i32, i32, i32, i32, i16, i16, i8, i8, i8, i8, i8, i8, i8 }
%struct.Curl_llist_node = type { ptr, ptr, ptr, ptr }
%struct.hostname = type { ptr, ptr, ptr, ptr }
%struct.proxy_info = type { %struct.hostname, i32, i8, ptr, ptr }
%struct.ip_quadruple = type { [46 x i8], [46 x i8], i32, i32 }
%struct.anon = type { [2 x %struct.curltime], i32 }
%struct.easy_pollset = type { [5 x i32], i32, [5 x i8] }
%struct.ssl_primary_config = type { ptr, ptr, ptr, ptr, ptr, ptr, ptr, ptr, ptr, ptr, ptr, ptr, ptr, ptr, i8, i32, i8, i8 }
%struct.ConnectBits = type { i64 }
%struct.curltime = type { i64, i32 }
%struct.Curl_llist = type { ptr, ptr, ptr, i64 }
%struct.ntlmdata = type { i32, [8 x i8], i32, ptr }
%union.anon.1 = type { %struct.ftp_conn }
%struct.ftp_conn = type { %struct.pingpong, ptr, ptr, ptr, ptr, ptr, ptr, ptr, i8, i64, ptr, i64, i32, i32, i32, i32, i32, i16, i8, i8, i8, i8, i8 }
%struct.pingpong = type { i64, i8, ptr, i64, i64, %struct.curltime, i64, %struct.dynbuf, %struct.dynbuf, i64, i64, ptr, ptr }
%struct.dynbuf = type { ptr, i64, i64, i64 }
%struct.Curl_easy = type { i32, i64, i64, ptr, %struct.Curl_llist_node, %struct.Curl_llist_node, i32, i32, %struct.Curl_message, %struct.easy_pollset, %struct.Names, ptr, ptr, ptr, ptr, %struct.SingleRequest, %struct.UserDefined, ptr, ptr, ptr, %struct.Progress, %struct.UrlState, ptr, %struct.PureInfo, %struct.curl_tlssessioninfo }
%struct.Curl_message = type { %struct.Curl_llist_node, %struct.CURLMsg }
%struct.CURLMsg = type { i32, ptr, %union.anon }
%union.anon = type { ptr }
%struct.Names = type { ptr, i32 }
%struct.SingleRequest = type <{ i64, i64, i64, i64, %struct.curltime, i32, i32, i32, i32, i64, i32, i32, i8, i8, [2 x i8], i32, ptr, ptr, %struct.bufq, i64, i64, ptr, ptr, %union.anon.0, ptr, i8, i32, [3 x i8] }>
%struct.bufq = type { ptr, ptr, ptr, ptr, i64, i64, i64, i32 }
%union.anon.0 = type { ptr }
%struct.UserDefined = type <{ ptr, ptr, ptr, ptr, ptr, ptr, i64, i64, i64, ptr, ptr, i64, ptr, ptr, ptr, ptr, ptr, ptr, ptr, ptr, ptr, ptr, ptr, ptr, ptr, ptr, ptr, ptr, ptr, ptr, ptr, ptr, ptr, ptr, ptr, i64, i64, i64, i64, i64, i64, i64, i64, i64, ptr, ptr, %struct.curl_mimepart, ptr, ptr, ptr, i64, %struct.ssl_config_data, %struct.ssl_config_data, ptr, i16, i8, i8, %struct.ssl_general_config, i32, i32, i32, [4 x i8], ptr, ptr, i64, i32, i8, i8, i8, i8, ptr, ptr, ptr, i32, [4 x i8], [74 x ptr], [8 x ptr], i32, i32, i32, [4 x i8], ptr, i32, [4 x i8], ptr, ptr, ptr, ptr, ptr, i32, i32, i32, i32, i32, i32, i32, i32, i64, ptr, ptr, i64, ptr, i64, ptr, ptr, ptr, ptr, i32, i16, i16, i16, i8, i8, i8, i8, i8, i8, i8, i8, i64, [6 x i8] }>
%struct.curl_mimepart = type { ptr, ptr, i32, i32, ptr, ptr, ptr, ptr, ptr, ptr, ptr, ptr, ptr, ptr, ptr, i64, %struct.mime_state, ptr, %struct.mime_encoder_state, i64 }
%struct.mime_state = type { i32, ptr, i64 }
%struct.mime_encoder_state = type { i64, i64, i64, [256 x i8] }
%struct.ssl_config_data = type { %struct.ssl_primary_config, i64, ptr, ptr, ptr, ptr, ptr, ptr, ptr, i16 }
%struct.ssl_general_config = type { i32 }
%struct.Progress = type { i64, %struct.pgrs_dir, %struct.pgrs_dir, i64, i64, i32, i32, i64, i64, i64, i64, i64, i64, i64, i64, i64, %struct.curltime, %struct.curltime, %struct.curltime, %struct.curltime, %struct.curltime, [6 x i64], [6 x %struct.curltime], i32, i8 }
%struct.pgrs_dir = type { i64, i64, i64, %struct.pgrs_measure }
%struct.pgrs_measure = type { %struct.curltime, i64 }
%struct.UrlState = type { %struct.curltime, i64, i64, %struct.dynbuf, ptr, i64, ptr, i32, i32, i32, ptr, i32, i64, i32, ptr, %struct.digestdata, %struct.digestdata, %struct.auth, %struct.auth, %struct.Curl_async, ptr, i8, %struct.curltime, %struct.Curl_tree, %struct.Curl_llist, [15 x %struct.time_node], ptr, ptr, i64, i64, i64, i64, [32 x i8], i64, ptr, ptr, ptr, %struct.urlpieces, ptr, ptr, ptr, ptr, ptr, i64, %struct.dynbuf, %struct.Curl_llist, [2 x %struct.curl_header], ptr, i32, ptr, ptr, %struct.store_netrc, %struct.dynamically_allocated_data, i8, i8, i8, i8, i32 }
%struct.digestdata = type { ptr, ptr, ptr, ptr, ptr, ptr, i32, i8, i8 }
%struct.auth = type { i64, i64, i64, i8 }
%struct.Curl_async = type { ptr, ptr, ptr, ptr, i32, i32, i8 }
%struct.Curl_tree = type { ptr, ptr, ptr, ptr, %struct.curltime, ptr }
%struct.time_node = type { %struct.Curl_llist_node, %struct.curltime, i32 }
%struct.urlpieces = type { ptr, ptr, ptr, ptr, ptr, ptr, ptr, ptr }
%struct.curl_header = type { ptr, ptr, i64, i64, i32, ptr }
%struct.store_netrc = type { %struct.dynbuf, ptr, i8 }
%struct.dynamically_allocated_data = type { ptr, ptr, ptr, ptr, ptr, ptr, ptr, ptr, ptr, ptr, ptr, ptr, ptr, ptr }
%struct.PureInfo = type { i32, i32, i32, i64, i64, i64, i64, i64, i64, i64, ptr, ptr, i64, i32, %struct.ip_quadruple, i32, ptr, i32, %struct.curl_certinfo, i32, i8 }
%struct.curl_certinfo = type { i32, ptr }
%struct.curl_tlssessioninfo = type { i32, ptr }
%struct.IMAP = type { i32, ptr, ptr, ptr, ptr, ptr, ptr, ptr, ptr, ptr }
%struct.imap_conn = type { %struct.pingpong, %struct.SASL, %struct.dynbuf, ptr, ptr, i32, [5 x i8], i8, i8, i8 }
%struct.SASL = type { ptr, i32, ptr, i16, i16, i16, i8 }

; Function Attrs: nounwind uwtable
define internal i32 @imap_dophase_done(ptr noundef %0, i1 noundef zeroext %1) #0 {
  %3 = alloca ptr, align 8
  %4 = alloca i8, align 1
  %5 = alloca ptr, align 8
  store ptr %0, ptr %3, align 8, !tbaa !3
  %6 = zext i1 %1 to i8
  store i8 %6, ptr %4, align 1, !tbaa !14
  call void @llvm.lifetime.start.p0(i64 8, ptr %5) #6
  %7 = load ptr, ptr %3, align 8, !tbaa !3
  %8 = getelementptr inbounds nuw %struct.Curl_easy, ptr %7, i32 0, i32 15
  %9 = getelementptr inbounds nuw %struct.SingleRequest, ptr %8, i32 0, i32 23
  %10 = load ptr, ptr %9, align 8, !tbaa !83
  store ptr %10, ptr %5, align 8, !tbaa !84
  %11 = load ptr, ptr %5, align 8, !tbaa !84
  %12 = getelementptr inbounds nuw %struct.IMAP, ptr %11, i32 0, i32 0
  %13 = load i32, ptr %12, align 8, !tbaa !98
  %14 = icmp ne i32 %13, 0
  br i1 %14, label %15, label %17

15:                                               ; preds = %2
  %16 = load ptr, ptr %3, align 8, !tbaa !3
  call void @Curl_xfer_setup_nop(ptr noundef %16)
  br label %17

17:                                               ; preds = %15, %2
  call void @llvm.lifetime.end.p0(i64 8, ptr %5) #6
  ret i32 0
}

; Function Attrs: nounwind uwtable
define internal i32 @imap_multi_statemach(ptr noundef %0, ptr noundef %1) #0 {
  %3 = alloca i32, align 4
  %4 = alloca ptr, align 8
  %5 = alloca ptr, align 8
  %6 = alloca i32, align 4
  %7 = alloca ptr, align 8
  %8 = alloca ptr, align 8
  %9 = alloca i8, align 1
  %10 = alloca i32, align 4
  store ptr %0, ptr %4, align 8, !tbaa !3
  store ptr %1, ptr %5, align 8, !tbaa !12
  call void @llvm.lifetime.start.p0(i64 4, ptr %6) #6
  store i32 0, ptr %6, align 4, !tbaa !10
  call void @llvm.lifetime.start.p0(i64 8, ptr %7) #6
  %11 = load ptr, ptr %4, align 8, !tbaa !3
  %12 = getelementptr inbounds nuw %struct.Curl_easy, ptr %11, i32 0, i32 3
  %13 = load ptr, ptr %12, align 8, !tbaa !16
  store ptr %13, ptr %7, align 8, !tbaa !8
  call void @llvm.lifetime.start.p0(i64 8, ptr %8) #6
  %14 = load ptr, ptr %7, align 8, !tbaa !8
  %15 = getelementptr inbounds nuw %struct.connectdata, ptr %14, i32 0, i32 43
  store ptr %15, ptr %8, align 8, !tbaa !99
  %16 = load ptr, ptr %7, align 8, !tbaa !8
  %17 = call zeroext i1 @Curl_conn_is_ssl(ptr noundef %16, i32 noundef 0)
  br i1 %17, label %18, label %49

18:                                               ; preds = %2
  %19 = load ptr, ptr %8, align 8, !tbaa !99
  %20 = getelementptr inbounds nuw %struct.imap_conn, ptr %19, i32 0, i32 9
  %21 = load i8, ptr %20, align 1
  %22 = and i8 %21, 1
  %23 = zext i8 %22 to i32
  %24 = icmp ne i32 %23, 0
  br i1 %24, label %49, label %25

25:                                               ; preds = %18
  call void @llvm.lifetime.start.p0(i64 1, ptr %9) #6
  store i8 0, ptr %9, align 1, !tbaa !14
  %26 = load ptr, ptr %4, align 8, !tbaa !3
  %27 = call i32 @Curl_conn_connect(ptr noundef %26, i32 noundef 0, i1 noundef zeroext false, ptr noundef %9)
  store i32 %27, ptr %6, align 4, !tbaa !10
  %28 = load i8, ptr %9, align 1, !tbaa !14, !range !111, !noundef !112
  %29 = trunc i8 %28 to i1
  %30 = zext i1 %29 to i32
  %31 = load ptr, ptr %8, align 8, !tbaa !99
  %32 = getelementptr inbounds nuw %struct.imap_conn, ptr %31, i32 0, i32 9
  %33 = trunc i32 %30 to i8
  %34 = load i8, ptr %32, align 1
  %35 = and i8 %33, 1
  %36 = and i8 %34, -2
  %37 = or i8 %36, %35
  store i8 %37, ptr %32, align 1
  %38 = load i32, ptr %6, align 4, !tbaa !10
  %39 = icmp ne i32 %38, 0
  br i1 %39, label %43, label %40

40:                                               ; preds = %25
  %41 = load i8, ptr %9, align 1, !tbaa !14, !range !111, !noundef !112
  %42 = trunc i8 %41 to i1
  br i1 %42, label %45, label %43

43:                                               ; preds = %40, %25
  %44 = load i32, ptr %6, align 4, !tbaa !10
  store i32 %44, ptr %3, align 4
  store i32 1, ptr %10, align 4
  br label %46

45:                                               ; preds = %40
  store i32 0, ptr %10, align 4
  br label %46

46:                                               ; preds = %45, %43
  call void @llvm.lifetime.end.p0(i64 1, ptr %9) #6
  %47 = load i32, ptr %10, align 4
  switch i32 %47, label %61 [
    i32 0, label %48
  ]

48:                                               ; preds = %46
  br label %49

49:                                               ; preds = %48, %18, %2
  %50 = load ptr, ptr %4, align 8, !tbaa !3
  %51 = load ptr, ptr %8, align 8, !tbaa !99
  %52 = getelementptr inbounds nuw %struct.imap_conn, ptr %51, i32 0, i32 0
  %53 = call i32 @Curl_pp_statemach(ptr noundef %50, ptr noundef %52, i1 noundef zeroext false, i1 noundef zeroext false)
  store i32 %53, ptr %6, align 4, !tbaa !10
  %54 = load ptr, ptr %8, align 8, !tbaa !99
  %55 = getelementptr inbounds nuw %struct.imap_conn, ptr %54, i32 0, i32 5
  %56 = load i32, ptr %55, align 8, !tbaa !113
  %57 = icmp eq i32 %56, 0
  %58 = load ptr, ptr %5, align 8, !tbaa !12
  %59 = zext i1 %57 to i8
  store i8 %59, ptr %58, align 1, !tbaa !14
  %60 = load i32, ptr %6, align 4, !tbaa !10
  store i32 %60, ptr %3, align 4
  store i32 1, ptr %10, align 4
  br label %61

61:                                               ; preds = %49, %46
  call void @llvm.lifetime.end.p0(i64 8, ptr %8) #6
  call void @llvm.lifetime.end.p0(i64 8, ptr %7) #6
  call void @llvm.lifetime.end.p0(i64 4, ptr %6) #6
  %62 = load i32, ptr %3, align 4
  ret i32 %62
}

; Function Attrs: nounwind uwtable
define internal i32 @imap_doing(ptr noundef %0, ptr noundef %1) #0 {
  %3 = alloca ptr, align 8
  %4 = alloca ptr, align 8
  %5 = alloca i32, align 4
  store ptr %0, ptr %3, align 8, !tbaa !3
  store ptr %1, ptr %4, align 8, !tbaa !12
  call void @llvm.lifetime.start.p0(i64 4, ptr %5) #6
  %6 = load ptr, ptr %3, align 8, !tbaa !3
  %7 = load ptr, ptr %4, align 8, !tbaa !12
  %8 = call i32 @imap_multi_statemach(ptr noundef %6, ptr noundef %7)
  store i32 %8, ptr %5, align 4, !tbaa !10
  %9 = load i32, ptr %5, align 4, !tbaa !10
  %10 = icmp ne i32 %9, 0
  br i1 %10, label %11, label %15

11:                                               ; preds = %2
  br label %12

12:                                               ; preds = %11
  br label %13

13:                                               ; preds = %12
  br label %14

14:                                               ; preds = %13
  br label %26

15:                                               ; preds = %2
  %16 = load ptr, ptr %4, align 8, !tbaa !12
  %17 = load i8, ptr %16, align 1, !tbaa !14, !range !111, !noundef !112
  %18 = trunc i8 %17 to i1
  br i1 %18, label %19, label %25

19:                                               ; preds = %15
  %20 = load ptr, ptr %3, align 8, !tbaa !3
  %21 = call i32 @imap_dophase_done(ptr noundef %20, i1 noundef zeroext false)
  store i32 %21, ptr %5, align 4, !tbaa !10
  br label %22

22:                                               ; preds = %19
  br label %23

23:                                               ; preds = %22
  br label %24

24:                                               ; preds = %23
  br label %25

25:                                               ; preds = %24, %15
  br label %26

26:                                               ; preds = %25, %14
  %27 = load i32, ptr %5, align 4, !tbaa !10
  call void @llvm.lifetime.end.p0(i64 4, ptr %5) #6
  ret i32 %27
}