; Function Attrs: nounwind uwtable
define internal i32 @imap_doing(ptr noundef %0, ptr noundef captures(none) %1) #0 {
  %3 = alloca i8, align 1
  %4 = getelementptr inbounds nuw i8, ptr %0, i64 24
  %5 = load ptr, ptr %4, align 8, !tbaa !98
  %6 = getelementptr inbounds nuw i8, ptr %5, i64 1088
  %7 = tail call zeroext i1 @Curl_conn_is_ssl(ptr noundef %5, i32 noundef 0) #7
  br i1 %7, label %8, label %21

8:                                                ; preds = %2
  %9 = getelementptr inbounds nuw i8, ptr %5, i64 1339
  %10 = load i8, ptr %9, align 1
  %11 = and i8 %10, 1
  %.not.i = icmp eq i8 %11, 0
  br i1 %.not.i, label %12, label %21

12:                                               ; preds = %8
  call void @llvm.lifetime.start.p0(i64 1, ptr nonnull %3) #7
  store i8 0, ptr %3, align 1, !tbaa !8
  %13 = call i32 @Curl_conn_connect(ptr noundef nonnull %0, i32 noundef 0, i1 noundef zeroext false, ptr noundef nonnull %3) #7
  %14 = load i8, ptr %3, align 1, !tbaa !8, !range !112, !noundef !113
  %15 = load i8, ptr %9, align 1
  %16 = and i8 %15, -2
  %17 = or disjoint i8 %16, %14
  store i8 %17, ptr %9, align 1
  %.not15.i = icmp eq i32 %13, 0
  br i1 %.not15.i, label %18, label %20

18:                                               ; preds = %12
  %19 = trunc nuw i8 %14 to i1
  br i1 %19, label %.critedge.i, label %20

.critedge.i:                                      ; preds = %18
  call void @llvm.lifetime.end.p0(i64 1, ptr nonnull %3) #7
  br label %21

20:                                               ; preds = %18, %12
  call void @llvm.lifetime.end.p0(i64 1, ptr nonnull %3) #7
  br label %imap_multi_statemach.exit

21:                                               ; preds = %.critedge.i, %8, %2
  %22 = call i32 @Curl_pp_statemach(ptr noundef nonnull %0, ptr noundef nonnull %6, i1 noundef zeroext false, i1 noundef zeroext false) #7
  %23 = getelementptr inbounds nuw i8, ptr %5, i64 1328
  %24 = load i32, ptr %23, align 8, !tbaa !110
  %25 = icmp eq i32 %24, 0
  %26 = zext i1 %25 to i8
  store i8 %26, ptr %1, align 1, !tbaa !8
  br label %imap_multi_statemach.exit

imap_multi_statemach.exit:                        ; preds = %20, %21
  %.1.i = phi i32 [ %22, %21 ], [ %13, %20 ]
  %.not = icmp eq i32 %.1.i, 0
  br i1 %.not, label %27, label %imap_dophase_done.exit

27:                                               ; preds = %imap_multi_statemach.exit
  %28 = load i8, ptr %1, align 1, !tbaa !8, !range !112, !noundef !113
  %29 = trunc nuw i8 %28 to i1
  br i1 %29, label %30, label %imap_dophase_done.exit

30:                                               ; preds = %27
  %31 = getelementptr inbounds nuw i8, ptr %0, i64 440
  %32 = load ptr, ptr %31, align 8, !tbaa !7
  %33 = load i32, ptr %32, align 8, !tbaa !99
  %.not.i6 = icmp eq i32 %33, 0
  br i1 %.not.i6, label %imap_dophase_done.exit, label %34

34:                                               ; preds = %30
  call void @Curl_xfer_setup_nop(ptr noundef nonnull %0) #7
  br label %imap_dophase_done.exit

imap_dophase_done.exit:                           ; preds = %34, %30, %27, %imap_multi_statemach.exit
  ret i32 %.1.i
}